target datalayout = "e-m:e-p270:32:32-p271:32:32-p272:64:64-i64:64-i128:128-f80:128-n8:16:32:64-S128"
target triple = "x86_64-pc-linux-gnu"

%"struct.std::array" = type { [5 x i32] }
%"class.std::shared_ptr" = type { %"class.std::__shared_ptr" }
%"class.std::__shared_ptr" = type { ptr, %"class.std::__shared_count" }
%"class.std::__shared_count" = type { ptr }
%"class.std::vector.29" = type { %"struct.std::_Vector_base.30" }
%"struct.std::_Vector_base.30" = type { %"struct.std::_Vector_base<int, std::allocator<int>>::_Vector_impl" }
%"struct.std::_Vector_base<int, std::allocator<int>>::_Vector_impl" = type { %"struct.std::_Vector_base<int, std::allocator<int>>::_Vector_impl_data" }
%"struct.std::_Vector_base<int, std::allocator<int>>::_Vector_impl_data" = type { ptr, ptr, ptr }
%"class.open_spiel::pathfinding::PathfindingState" = type { %"class.open_spiel::SimMoveState.base", ptr, ptr, i32, i32, i32, %"class.std::vector.9", %"class.std::vector.14", %"class.std::vector.19", %"class.std::vector.24", %"class.std::vector.24", %"class.std::vector.29", %"class.std::vector.29" }
%"class.open_spiel::SimMoveState.base" = type { %"class.open_spiel::State.base" }
%"class.open_spiel::State.base" = type <{ ptr, %"class.std::shared_ptr", i32, i32, %"class.std::vector", i32 }>
%"class.std::vector" = type { %"struct.std::_Vector_base" }
%"struct.std::_Vector_base" = type { %"struct.std::_Vector_base<open_spiel::State::PlayerAction, std::allocator<open_spiel::State::PlayerAction>>::_Vector_impl" }
%"struct.std::_Vector_base<open_spiel::State::PlayerAction, std::allocator<open_spiel::State::PlayerAction>>::_Vector_impl" = type { %"struct.std::_Vector_base<open_spiel::State::PlayerAction, std::allocator<open_spiel::State::PlayerAction>>::_Vector_impl_data" }
%"struct.std::_Vector_base<open_spiel::State::PlayerAction, std::allocator<open_spiel::State::PlayerAction>>::_Vector_impl_data" = type { ptr, ptr, ptr }
%"class.std::vector.9" = type { %"struct.std::_Vector_base.10" }
%"struct.std::_Vector_base.10" = type { %"struct.std::_Vector_base<std::pair<int, int>, std::allocator<std::pair<int, int>>>::_Vector_impl" }
%"struct.std::_Vector_base<std::pair<int, int>, std::allocator<std::pair<int, int>>>::_Vector_impl" = type { %"struct.std::_Vector_base<std::pair<int, int>, std::allocator<std::pair<int, int>>>::_Vector_impl_data" }
%"struct.std::_Vector_base<std::pair<int, int>, std::allocator<std::pair<int, int>>>::_Vector_impl_data" = type { ptr, ptr, ptr }
%"class.std::vector.14" = type { %"struct.std::_Vector_base.15" }
%"struct.std::_Vector_base.15" = type { %"struct.std::_Vector_base<std::vector<int>, std::allocator<std::vector<int>>>::_Vector_impl" }
%"struct.std::_Vector_base<std::vector<int>, std::allocator<std::vector<int>>>::_Vector_impl" = type { %"struct.std::_Vector_base<std::vector<int>, std::allocator<std::vector<int>>>::_Vector_impl_data" }
%"struct.std::_Vector_base<std::vector<int>, std::allocator<std::vector<int>>>::_Vector_impl_data" = type { ptr, ptr, ptr }
%"class.std::vector.19" = type { %"struct.std::_Vector_base.20" }
%"struct.std::_Vector_base.20" = type { %"struct.std::_Vector_base<long, std::allocator<long>>::_Vector_impl" }
%"struct.std::_Vector_base<long, std::allocator<long>>::_Vector_impl" = type { %"struct.std::_Vector_base<long, std::allocator<long>>::_Vector_impl_data" }
%"struct.std::_Vector_base<long, std::allocator<long>>::_Vector_impl_data" = type { ptr, ptr, ptr }
%"class.std::vector.24" = type { %"struct.std::_Vector_base.25" }
%"struct.std::_Vector_base.25" = type { %"struct.std::_Vector_base<double, std::allocator<double>>::_Vector_impl" }
%"struct.std::_Vector_base<double, std::allocator<double>>::_Vector_impl" = type { %"struct.std::_Vector_base<double, std::allocator<double>>::_Vector_impl_data" }
%"struct.std::_Vector_base<double, std::allocator<double>>::_Vector_impl_data" = type { ptr, ptr, ptr }
%"struct.open_spiel::pathfinding::GridSpec" = type { i32, i32, i32, %"class.std::vector.9", %"class.std::vector.9", %"class.std::vector.9" }
%"struct.std::pair.34" = type { i32, i32 }

@_ZN10open_spiel11pathfinding12_GLOBAL__N_111kRowOffsetsE = internal constant %"struct.std::array" { [5 x i32] [i32 0, i32 0, i32 -1, i32 0, i32 1] }, align 4
@_ZN10open_spiel11pathfinding12_GLOBAL__N_111kColOffsetsE = internal constant %"struct.std::array" { [5 x i32] [i32 0, i32 -1, i32 0, i32 1, i32 0] }, align 4

; Function Attrs: mustprogress nounwind uwtable
define linkonce_odr noundef nonnull align 4 dereferenceable(4) ptr @_ZNSt14__array_traitsIiLm5EE6_S_refERA5_Kim(ptr noundef nonnull align 4 dereferenceable(20) %0, i64 noundef %1) #5 comdat align 2 {
  %3 = alloca ptr, align 8
  %4 = alloca i64, align 8
  store ptr %0, ptr %3, align 8
  store i64 %1, ptr %4, align 8
  %5 = load ptr, ptr %3, align 8
  %6 = load i64, ptr %4, align 8
  %7 = getelementptr inbounds [5 x i32], ptr %5, i64 0, i64 %6
  ret ptr %7
}

; Function Attrs: mustprogress nounwind uwtable
define linkonce_odr void @_ZNSt4pairIiiEC2IRiS2_TnNSt9enable_ifIXaaclsr5_PCCPE22_MoveConstructiblePairIT_T0_EEclsr5_PCCPE30_ImplicitlyMoveConvertiblePairIS4_S5_EEEbE4typeELb1EEEOS4_OS5_(ptr noundef nonnull align 4 dereferenceable(8) %0, ptr noundef nonnull align 4 dereferenceable(4) %1, ptr noundef nonnull align 4 dereferenceable(4) %2) unnamed_addr #5 comdat align 2 {
  %4 = alloca ptr, align 8
  %5 = alloca ptr, align 8
  %6 = alloca ptr, align 8
  store ptr %0, ptr %4, align 8
  store ptr %1, ptr %5, align 8
  store ptr %2, ptr %6, align 8
  %7 = load ptr, ptr %4, align 8
  %8 = getelementptr inbounds nuw %"struct.std::pair.34", ptr %7, i32 0, i32 0
  %9 = load ptr, ptr %5, align 8
  %10 = load i32, ptr %9, align 4
  store i32 %10, ptr %8, align 4
  %11 = getelementptr inbounds nuw %"struct.std::pair.34", ptr %7, i32 0, i32 1
  %12 = load ptr, ptr %6, align 8
  %13 = load i32, ptr %12, align 4
  store i32 %13, ptr %11, align 4
  ret void
}

; Function Attrs: mustprogress nounwind uwtable
define linkonce_odr noundef nonnull align 4 dereferenceable(4) ptr @_ZNKSt6vectorIiSaIiEEixEm(ptr noundef nonnull align 8 dereferenceable(24) %0, i64 noundef %1) #5 comdat align 2 {
  %3 = alloca ptr, align 8
  %4 = alloca i64, align 8
  store ptr %0, ptr %3, align 8
  store i64 %1, ptr %4, align 8
  %5 = load ptr, ptr %3, align 8
  %6 = getelementptr inbounds nuw %"struct.std::_Vector_base.30", ptr %5, i32 0, i32 0
  %7 = getelementptr inbounds nuw %"struct.std::_Vector_base<int, std::allocator<int>>::_Vector_impl_data", ptr %6, i32 0, i32 0
  %8 = load ptr, ptr %7, align 8
  %9 = load i64, ptr %4, align 8
  %10 = getelementptr inbounds i32, ptr %8, i64 %9
  ret ptr %10
}

; Function Attrs: mustprogress nounwind uwtable
define linkonce_odr noundef nonnull align 8 dereferenceable(24) ptr @_ZNKSt6vectorIS_IiSaIiEESaIS1_EEixEm(ptr noundef nonnull align 8 dereferenceable(24) %0, i64 noundef %1) #5 comdat align 2 {
  %3 = alloca ptr, align 8
  %4 = alloca i64, align 8
  store ptr %0, ptr %3, align 8
  store i64 %1, ptr %4, align 8
  %5 = load ptr, ptr %3, align 8
  %6 = getelementptr inbounds nuw %"struct.std::_Vector_base.15", ptr %5, i32 0, i32 0
  %7 = getelementptr inbounds nuw %"struct.std::_Vector_base<std::vector<int>, std::allocator<std::vector<int>>>::_Vector_impl_data", ptr %6, i32 0, i32 0
  %8 = load ptr, ptr %7, align 8
  %9 = load i64, ptr %4, align 8
  %10 = getelementptr inbounds %"class.std::vector.29", ptr %8, i64 %9
  ret ptr %10
}

; Function Attrs: mustprogress nounwind uwtable
define noundef zeroext i1 @_ZNK10open_spiel11pathfinding16PathfindingState8InBoundsEii(ptr noundef nonnull align 8 dereferenceable(264) %0, i32 noundef %1, i32 noundef %2) #5 align 2 {
  %4 = alloca ptr, align 8
  %5 = alloca i32, align 4
  %6 = alloca i32, align 4
  store ptr %0, ptr %4, align 8
  store i32 %1, ptr %5, align 4
  store i32 %2, ptr %6, align 4
  %7 = load ptr, ptr %4, align 8
  %8 = load i32, ptr %5, align 4
  %9 = icmp sge i32 %8, 0
  br i1 %9, label %10, label %27

10:                                               ; preds = %3
  %11 = load i32, ptr %6, align 4
  %12 = icmp sge i32 %11, 0
  br i1 %12, label %13, label %27

13:                                               ; preds = %10
  %14 = load i32, ptr %5, align 4
  %15 = getelementptr inbounds nuw %"class.open_spiel::pathfinding::PathfindingState", ptr %7, i32 0, i32 2
  %16 = load ptr, ptr %15, align 8
  %17 = getelementptr inbounds nuw %"struct.open_spiel::pathfinding::GridSpec", ptr %16, i32 0, i32 0
  %18 = load i32, ptr %17, align 8
  %19 = icmp slt i32 %14, %18
  br i1 %19, label %20, label %27

20:                                               ; preds = %13
  %21 = load i32, ptr %6, align 4
  %22 = getelementptr inbounds nuw %"class.open_spiel::pathfinding::PathfindingState", ptr %7, i32 0, i32 2
  %23 = load ptr, ptr %22, align 8
  %24 = getelementptr inbounds nuw %"struct.open_spiel::pathfinding::GridSpec", ptr %23, i32 0, i32 1
  %25 = load i32, ptr %24, align 4
  %26 = icmp slt i32 %21, %25
  br label %27

27:                                               ; preds = %20, %13, %10, %3
  %28 = phi i1 [ false, %13 ], [ false, %10 ], [ false, %3 ], [ %26, %20 ]
  ret i1 %28
}

; Function Attrs: mustprogress nounwind uwtable
define linkonce_odr noundef nonnull align 4 dereferenceable(4) ptr @_ZNKSt5arrayIiLm5EEixEm(ptr noundef nonnull align 4 dereferenceable(20) %0, i64 noundef %1) #5 comdat align 2 {
  %3 = alloca ptr, align 8
  %4 = alloca i64, align 8
  store ptr %0, ptr %3, align 8
  store i64 %1, ptr %4, align 8
  %5 = load ptr, ptr %3, align 8
  %6 = getelementptr inbounds nuw %"struct.std::array", ptr %5, i32 0, i32 0
  %7 = load i64, ptr %4, align 8
  %8 = call noundef nonnull align 4 dereferenceable(4) ptr @_ZNSt14__array_traitsIiLm5EE6_S_refERA5_Kim(ptr noundef nonnull align 4 dereferenceable(20) %6, i64 noundef %7) #3
  ret ptr %8
}

; Function Attrs: mustprogress nounwind uwtable
define linkonce_odr noundef nonnull align 8 dereferenceable(8) ptr @_ZNKSt6vectorIlSaIlEEixEm(ptr noundef nonnull align 8 dereferenceable(24) %0, i64 noundef %1) #5 comdat align 2 {
  %3 = alloca ptr, align 8
  %4 = alloca i64, align 8
  store ptr %0, ptr %3, align 8
  store i64 %1, ptr %4, align 8
  %5 = load ptr, ptr %3, align 8
  %6 = getelementptr inbounds nuw %"struct.std::_Vector_base.20", ptr %5, i32 0, i32 0
  %7 = getelementptr inbounds nuw %"struct.std::_Vector_base<long, std::allocator<long>>::_Vector_impl_data", ptr %6, i32 0, i32 0
  %8 = load ptr, ptr %7, align 8
  %9 = load i64, ptr %4, align 8
  %10 = getelementptr inbounds i64, ptr %8, i64 %9
  ret ptr %10
}

; Function Attrs: mustprogress nounwind uwtable
define linkonce_odr noundef nonnull align 4 dereferenceable(8) ptr @_ZNKSt6vectorISt4pairIiiESaIS1_EEixEm(ptr noundef nonnull align 8 dereferenceable(24) %0, i64 noundef %1) #5 comdat align 2 {
  %3 = alloca ptr, align 8
  %4 = alloca i64, align 8
  store ptr %0, ptr %3, align 8
  store i64 %1, ptr %4, align 8
  %5 = load ptr, ptr %3, align 8
  %6 = getelementptr inbounds nuw %"struct.std::_Vector_base.10", ptr %5, i32 0, i32 0
  %7 = getelementptr inbounds nuw %"struct.std::_Vector_base<std::pair<int, int>, std::allocator<std::pair<int, int>>>::_Vector_impl_data", ptr %6, i32 0, i32 0
  %8 = load ptr, ptr %7, align 8
  %9 = load i64, ptr %4, align 8
  %10 = getelementptr inbounds %"struct.std::pair.34", ptr %8, i64 %9
  ret ptr %10
}

; Function Attrs: mustprogress uwtable
define i64 @_ZNK10open_spiel11pathfinding16PathfindingState12GetNextCoordEi(ptr noundef nonnull align 8 dereferenceable(264) %0, i32 noundef %1) #4 align 2 {
  %3 = alloca %"struct.std::pair.34", align 4
  %4 = alloca ptr, align 8
  %5 = alloca i32, align 4
  %6 = alloca i32, align 4
  %7 = alloca i32, align 4
  store ptr %0, ptr %4, align 8
  store i32 %1, ptr %5, align 4
  %8 = load ptr, ptr %4, align 8
  %9 = getelementptr inbounds nuw %"class.open_spiel::pathfinding::PathfindingState", ptr %8, i32 0, i32 6
  %10 = load i32, ptr %5, align 4
  %11 = sext i32 %10 to i64
  %12 = call noundef nonnull align 4 dereferenceable(8) ptr @_ZNKSt6vectorISt4pairIiiESaIS1_EEixEm(ptr noundef nonnull align 8 dereferenceable(24) %9, i64 noundef %11) #3
  %13 = getelementptr inbounds nuw %"struct.std::pair.34", ptr %12, i32 0, i32 0
  %14 = load i32, ptr %13, align 4
  %15 = getelementptr inbounds nuw %"class.open_spiel::pathfinding::PathfindingState", ptr %8, i32 0, i32 8
  %16 = load i32, ptr %5, align 4
  %17 = sext i32 %16 to i64
  %18 = call noundef nonnull align 8 dereferenceable(8) ptr @_ZNKSt6vectorIlSaIlEEixEm(ptr noundef nonnull align 8 dereferenceable(24) %15, i64 noundef %17) #3
  %19 = load i64, ptr %18, align 8
  %20 = call noundef nonnull align 4 dereferenceable(4) ptr @_ZNKSt5arrayIiLm5EEixEm(ptr noundef nonnull align 4 dereferenceable(20) @_ZN10open_spiel11pathfinding12_GLOBAL__N_111kRowOffsetsE, i64 noundef %19) #3
  %21 = load i32, ptr %20, align 4
  %22 = add nsw i32 %14, %21
  store i32 %22, ptr %6, align 4
  %23 = getelementptr inbounds nuw %"class.open_spiel::pathfinding::PathfindingState", ptr %8, i32 0, i32 6
  %24 = load i32, ptr %5, align 4
  %25 = sext i32 %24 to i64
  %26 = call noundef nonnull align 4 dereferenceable(8) ptr @_ZNKSt6vectorISt4pairIiiESaIS1_EEixEm(ptr noundef nonnull align 8 dereferenceable(24) %23, i64 noundef %25) #3
  %27 = getelementptr inbounds nuw %"struct.std::pair.34", ptr %26, i32 0, i32 1
  %28 = load i32, ptr %27, align 4
  %29 = getelementptr inbounds nuw %"class.open_spiel::pathfinding::PathfindingState", ptr %8, i32 0, i32 8
  %30 = load i32, ptr %5, align 4
  %31 = sext i32 %30 to i64
  %32 = call noundef nonnull align 8 dereferenceable(8) ptr @_ZNKSt6vectorIlSaIlEEixEm(ptr noundef nonnull align 8 dereferenceable(24) %29, i64 noundef %31) #3
  %33 = load i64, ptr %32, align 8
  %34 = call noundef nonnull align 4 dereferenceable(4) ptr @_ZNKSt5arrayIiLm5EEixEm(ptr noundef nonnull align 4 dereferenceable(20) @_ZN10open_spiel11pathfinding12_GLOBAL__N_111kColOffsetsE, i64 noundef %33) #3
  %35 = load i32, ptr %34, align 4
  %36 = add nsw i32 %28, %35
  store i32 %36, ptr %7, align 4
  %37 = load i32, ptr %6, align 4
  %38 = load i32, ptr %7, align 4
  %39 = call noundef zeroext i1 @_ZNK10open_spiel11pathfinding16PathfindingState8InBoundsEii(ptr noundef nonnull align 8 dereferenceable(264) %8, i32 noundef %37, i32 noundef %38)
  br i1 %39, label %40, label %50

40:                                               ; preds = %2
  %41 = getelementptr inbounds nuw %"class.open_spiel::pathfinding::PathfindingState", ptr %8, i32 0, i32 7
  %42 = load i32, ptr %6, align 4
  %43 = sext i32 %42 to i64
  %44 = call noundef nonnull align 8 dereferenceable(24) ptr @_ZNKSt6vectorIS_IiSaIiEESaIS1_EEixEm(ptr noundef nonnull align 8 dereferenceable(24) %41, i64 noundef %43) #3
  %45 = load i32, ptr %7, align 4
  %46 = sext i32 %45 to i64
  %47 = call noundef nonnull align 4 dereferenceable(4) ptr @_ZNKSt6vectorIiSaIiEEixEm(ptr noundef nonnull align 8 dereferenceable(24) %44, i64 noundef %46) #3
  %48 = load i32, ptr %47, align 4
  %49 = icmp eq i32 %48, -2
  br i1 %49, label %50, label %55

50:                                               ; preds = %40, %2
  %51 = getelementptr inbounds nuw %"class.open_spiel::pathfinding::PathfindingState", ptr %8, i32 0, i32 6
  %52 = load i32, ptr %5, align 4
  %53 = sext i32 %52 to i64
  %54 = call noundef nonnull align 4 dereferenceable(8) ptr @_ZNKSt6vectorISt4pairIiiESaIS1_EEixEm(ptr noundef nonnull align 8 dereferenceable(24) %51, i64 noundef %53) #3
  call void @llvm.memcpy.p0.p0.i64(ptr align 4 %3, ptr align 4 %54, i64 8, i1 false)
  br label %56

55:                                               ; preds = %40
  call void @_ZNSt4pairIiiEC2IRiS2_TnNSt9enable_ifIXaaclsr5_PCCPE22_MoveConstructiblePairIT_T0_EEclsr5_PCCPE30_ImplicitlyMoveConvertiblePairIS4_S5_EEEbE4typeELb1EEEOS4_OS5_(ptr noundef nonnull align 4 dereferenceable(8) %3, ptr noundef nonnull align 4 dereferenceable(4) %6, ptr noundef nonnull align 4 dereferenceable(4) %7)
  br label %56

56:                                               ; preds = %55, %50
  %57 = load i64, ptr %3, align 4
  ret i64 %57
}