; Function Attrs: mustprogress nofree norecurse nosync nounwind willreturn memory(read, inaccessiblemem: none) uwtable
define i64 @_ZNK10open_spiel11pathfinding16PathfindingState12GetNextCoordEi(ptr nocapture noundef nonnull readonly align 8 dereferenceable(264) %0, i32 noundef %1) local_unnamed_addr #7 align 2 {
  %3 = getelementptr inbounds nuw i8, ptr %0, i64 96
  %4 = sext i32 %1 to i64
  %5 = load ptr, ptr %3, align 8
  %6 = getelementptr inbounds %"struct.std::pair.34", ptr %5, i64 %4
  %7 = load i32, ptr %6, align 4
  %8 = getelementptr inbounds nuw i8, ptr %0, i64 144
  %9 = load ptr, ptr %8, align 8
  %10 = getelementptr inbounds i64, ptr %9, i64 %4
  %11 = load i64, ptr %10, align 8
  %12 = getelementptr inbounds [5 x i32], ptr @_ZN10open_spiel11pathfinding12_GLOBAL__N_111kRowOffsetsE, i64 0, i64 %11
  %13 = load i32, ptr %12, align 4
  %14 = add nsw i32 %13, %7
  %15 = getelementptr inbounds nuw i8, ptr %6, i64 4
  %16 = load i32, ptr %15, align 4
  %17 = getelementptr inbounds [5 x i32], ptr @_ZN10open_spiel11pathfinding12_GLOBAL__N_111kColOffsetsE, i64 0, i64 %11
  %18 = load i32, ptr %17, align 4
  %19 = add nsw i32 %18, %16
  %20 = or i32 %19, %14
  %or.cond.i = icmp sgt i32 %20, -1
  br i1 %or.cond.i, label %21, label %_ZNK10open_spiel11pathfinding16PathfindingState8InBoundsEii.exit.thread

21:                                               ; preds = %2
  %22 = getelementptr inbounds nuw i8, ptr %0, i64 72
  %23 = load ptr, ptr %22, align 8
  %24 = load i32, ptr %23, align 8
  %25 = icmp slt i32 %14, %24
  br i1 %25, label %_ZNK10open_spiel11pathfinding16PathfindingState8InBoundsEii.exit, label %_ZNK10open_spiel11pathfinding16PathfindingState8InBoundsEii.exit.thread

_ZNK10open_spiel11pathfinding16PathfindingState8InBoundsEii.exit: ; preds = %21
  %26 = getelementptr inbounds nuw i8, ptr %23, i64 4
  %27 = load i32, ptr %26, align 4
  %28 = icmp slt i32 %19, %27
  br i1 %28, label %29, label %_ZNK10open_spiel11pathfinding16PathfindingState8InBoundsEii.exit.thread

29:                                               ; preds = %_ZNK10open_spiel11pathfinding16PathfindingState8InBoundsEii.exit
  %30 = getelementptr inbounds nuw i8, ptr %0, i64 120
  %31 = sext i32 %14 to i64
  %32 = load ptr, ptr %30, align 8
  %33 = getelementptr inbounds %"class.std::vector.29", ptr %32, i64 %31
  %34 = sext i32 %19 to i64
  %35 = load ptr, ptr %33, align 8
  %36 = getelementptr inbounds i32, ptr %35, i64 %34
  %37 = load i32, ptr %36, align 4
  %38 = icmp eq i32 %37, -2
  br i1 %38, label %_ZNK10open_spiel11pathfinding16PathfindingState8InBoundsEii.exit.thread, label %40

_ZNK10open_spiel11pathfinding16PathfindingState8InBoundsEii.exit.thread: ; preds = %2, %21, %29, %_ZNK10open_spiel11pathfinding16PathfindingState8InBoundsEii.exit
  %39 = load i64, ptr %6, align 4
  %.sroa.0.0.extract.trunc = trunc i64 %39 to i32
  %.sroa.3.0.extract.shift = lshr i64 %39, 32
  %.sroa.3.0.extract.trunc = trunc nuw i64 %.sroa.3.0.extract.shift to i32
  br label %40

40:                                               ; preds = %29, %_ZNK10open_spiel11pathfinding16PathfindingState8InBoundsEii.exit.thread
  %.sroa.0.0 = phi i32 [ %.sroa.0.0.extract.trunc, %_ZNK10open_spiel11pathfinding16PathfindingState8InBoundsEii.exit.thread ], [ %14, %29 ]
  %.sroa.3.0 = phi i32 [ %.sroa.3.0.extract.trunc, %_ZNK10open_spiel11pathfinding16PathfindingState8InBoundsEii.exit.thread ], [ %19, %29 ]
  %.sroa.3.0.insert.ext = zext i32 %.sroa.3.0 to i64
  %.sroa.3.0.insert.shift = shl nuw i64 %.sroa.3.0.insert.ext, 32
  %.sroa.0.0.insert.ext = zext i32 %.sroa.0.0 to i64
  %.sroa.0.0.insert.insert = or disjoint i64 %.sroa.3.0.insert.shift, %.sroa.0.0.insert.ext
  ret i64 %.sroa.0.0.insert.insert
}